target datalayout = "e-m:e-p270:32:32-p271:32:32-p272:64:64-i64:64-i128:128-f80:128-n8:16:32:64-S128"
target triple = "x86_64-pc-linux-gnu"

%struct.AVCodecContext = type { ptr, i32, i32, ptr, i32, i32, ptr, ptr, ptr, i64, i32, i32, ptr, i32, %struct.AVRational, %struct.AVRational, %struct.AVRational, i32, i32, i32, i32, i32, %struct.AVRational, i32, i32, i32, i32, i32, i32, i32, i32, i32, i32, i32, ptr, ptr, i32, float, float, float, float, float, float, float, float, float, i32, i32, i32, i32, i32, i32, i32, i32, i32, i32, i32, i32, ptr, ptr, ptr, i32, i32, i32, i32, i32, i32, i32, i32, i32, i32, %struct.AVChannelLayout, i32, i32, i32, i32, i32, i32, i32, i32, ptr, i32, i32, i32, float, float, i32, i32, i32, i32, i32, ptr, i64, i64, float, float, i32, i32, ptr, ptr, i32, i32, i32, i32, i32, ptr, ptr, ptr, ptr, i32, i32, [8 x i64], i32, i32, i32, i32, i32, i32, i32, ptr, ptr, i32, i32, i32, i32, i32, i32, i32, i32, i32, i32, ptr, ptr, i32, i32, ptr, ptr, ptr, ptr, i32, i32, i64, i32, i32, i64, ptr, i64, ptr, i32, ptr, i32 }
%struct.AVRational = type { i32, i32 }
%struct.AVChannelLayout = type { i32, i32, %union.anon.0, ptr }
%union.anon.0 = type { i64 }
%struct.VBLEContext = type { ptr, %struct.LLVidDSPContext, i32, ptr }
%struct.LLVidDSPContext = type { ptr, ptr, ptr, ptr, ptr }

@.str.2 = private unnamed_addr constant [35 x i8] c"Could not allocate values buffer.\0A\00", align 1

; Function Attrs: cold nounwind optsize uwtable
define internal i32 @vble_decode_init(ptr noundef %0) #0 {
  %2 = alloca i32, align 4
  %3 = alloca ptr, align 8
  %4 = alloca ptr, align 8
  %5 = alloca i32, align 4
  store ptr %0, ptr %3, align 8, !tbaa !4
  call void @llvm.lifetime.start.p0(i64 8, ptr %4) #6
  %6 = load ptr, ptr %3, align 8, !tbaa !4
  %7 = getelementptr inbounds nuw %struct.AVCodecContext, ptr %6, i32 0, i32 6
  %8 = load ptr, ptr %7, align 8, !tbaa !9
  store ptr %8, ptr %4, align 8, !tbaa !29
  %9 = load ptr, ptr %3, align 8, !tbaa !4
  %10 = load ptr, ptr %4, align 8, !tbaa !29
  %11 = getelementptr inbounds nuw %struct.VBLEContext, ptr %10, i32 0, i32 0
  store ptr %9, ptr %11, align 8, !tbaa !31
  %12 = load ptr, ptr %4, align 8, !tbaa !29
  %13 = getelementptr inbounds nuw %struct.VBLEContext, ptr %12, i32 0, i32 1
  call void @ff_llviddsp_init(ptr noundef %13)
  %14 = load ptr, ptr %3, align 8, !tbaa !4
  %15 = getelementptr inbounds nuw %struct.AVCodecContext, ptr %14, i32 0, i32 23
  store i32 0, ptr %15, align 8, !tbaa !34
  %16 = load ptr, ptr %3, align 8, !tbaa !4
  %17 = getelementptr inbounds nuw %struct.AVCodecContext, ptr %16, i32 0, i32 115
  store i32 8, ptr %17, align 4, !tbaa !35
  %18 = load ptr, ptr %3, align 8, !tbaa !4
  %19 = getelementptr inbounds nuw %struct.AVCodecContext, ptr %18, i32 0, i32 23
  %20 = load i32, ptr %19, align 8, !tbaa !34
  %21 = load ptr, ptr %3, align 8, !tbaa !4
  %22 = getelementptr inbounds nuw %struct.AVCodecContext, ptr %21, i32 0, i32 18
  %23 = load i32, ptr %22, align 8, !tbaa !36
  %24 = load ptr, ptr %3, align 8, !tbaa !4
  %25 = getelementptr inbounds nuw %struct.AVCodecContext, ptr %24, i32 0, i32 19
  %26 = load i32, ptr %25, align 4, !tbaa !37
  %27 = call i32 @av_image_get_buffer_size(i32 noundef %20, i32 noundef %23, i32 noundef %26, i32 noundef 1)
  %28 = load ptr, ptr %4, align 8, !tbaa !29
  %29 = getelementptr inbounds nuw %struct.VBLEContext, ptr %28, i32 0, i32 2
  store i32 %27, ptr %29, align 8, !tbaa !38
  %30 = load ptr, ptr %4, align 8, !tbaa !29
  %31 = getelementptr inbounds nuw %struct.VBLEContext, ptr %30, i32 0, i32 2
  %32 = load i32, ptr %31, align 8, !tbaa !38
  %33 = icmp slt i32 %32, 0
  br i1 %33, label %34, label %38

34:                                               ; preds = %1
  %35 = load ptr, ptr %4, align 8, !tbaa !29
  %36 = getelementptr inbounds nuw %struct.VBLEContext, ptr %35, i32 0, i32 2
  %37 = load i32, ptr %36, align 8, !tbaa !38
  store i32 %37, ptr %2, align 4
  store i32 1, ptr %5, align 4
  br label %53

38:                                               ; preds = %1
  %39 = load ptr, ptr %4, align 8, !tbaa !29
  %40 = getelementptr inbounds nuw %struct.VBLEContext, ptr %39, i32 0, i32 2
  %41 = load i32, ptr %40, align 8, !tbaa !38
  %42 = sext i32 %41 to i64
  %43 = call ptr @av_malloc_array(i64 noundef %42, i64 noundef 1)
  %44 = load ptr, ptr %4, align 8, !tbaa !29
  %45 = getelementptr inbounds nuw %struct.VBLEContext, ptr %44, i32 0, i32 3
  store ptr %43, ptr %45, align 8, !tbaa !39
  %46 = load ptr, ptr %4, align 8, !tbaa !29
  %47 = getelementptr inbounds nuw %struct.VBLEContext, ptr %46, i32 0, i32 3
  %48 = load ptr, ptr %47, align 8, !tbaa !39
  %49 = icmp ne ptr %48, null
  br i1 %49, label %52, label %50

50:                                               ; preds = %38
  %51 = load ptr, ptr %3, align 8, !tbaa !4
  call void (ptr, i32, ptr, ...) @av_log(ptr noundef %51, i32 noundef 16, ptr noundef @.str.2)
  store i32 -12, ptr %2, align 4
  store i32 1, ptr %5, align 4
  br label %53

52:                                               ; preds = %38
  store i32 0, ptr %2, align 4
  store i32 1, ptr %5, align 4
  br label %53

53:                                               ; preds = %52, %50, %34
  call void @llvm.lifetime.end.p0(i64 8, ptr %4) #6
  %54 = load i32, ptr %2, align 4
  ret i32 %54
}