; Function Attrs: cold nounwind optsize uwtable
define internal range(i32 -2147483648, 1) i32 @vble_decode_init(ptr noundef %0) #0 {
  %2 = getelementptr inbounds nuw i8, ptr %0, i64 32
  %3 = load ptr, ptr %2, align 8, !tbaa !4
  store ptr %0, ptr %3, align 8, !tbaa !27
  %4 = getelementptr inbounds nuw i8, ptr %3, i64 8
  tail call void @ff_llviddsp_init(ptr noundef nonnull %4) #5
  %5 = getelementptr inbounds nuw i8, ptr %0, i64 136
  store i32 0, ptr %5, align 8, !tbaa !31
  %6 = getelementptr inbounds nuw i8, ptr %0, i64 652
  store i32 8, ptr %6, align 4, !tbaa !32
  %7 = getelementptr inbounds nuw i8, ptr %0, i64 112
  %8 = load i32, ptr %7, align 8, !tbaa !33
  %9 = getelementptr inbounds nuw i8, ptr %0, i64 116
  %10 = load i32, ptr %9, align 4, !tbaa !34
  %11 = tail call i32 @av_image_get_buffer_size(i32 noundef 0, i32 noundef %8, i32 noundef %10, i32 noundef 1) #5
  %12 = getelementptr inbounds nuw i8, ptr %3, i64 48
  store i32 %11, ptr %12, align 8, !tbaa !35
  %13 = icmp slt i32 %11, 0
  br i1 %13, label %19, label %14

14:                                               ; preds = %1
  %15 = zext nneg i32 %11 to i64
  %16 = tail call ptr @av_malloc_array(i64 noundef %15, i64 noundef 1) #5
  %17 = getelementptr inbounds nuw i8, ptr %3, i64 56
  store ptr %16, ptr %17, align 8, !tbaa !36
  %.not = icmp eq ptr %16, null
  br i1 %.not, label %18, label %19

18:                                               ; preds = %14
  tail call void (ptr, i32, ptr, ...) @av_log(ptr noundef nonnull %0, i32 noundef 16, ptr noundef nonnull @.str.2) #5
  br label %19

19:                                               ; preds = %14, %1, %18
  %.0 = phi i32 [ -12, %18 ], [ %11, %1 ], [ 0, %14 ]
  ret i32 %.0
}